; Function Attrs: mustprogress nofree norecurse nosync nounwind willreturn memory(read, inaccessiblemem: none) uwtable
define noundef i64 @_ZNK7mitsuba6Struct9alignmentEv(ptr nocapture noundef nonnull readonly align 8 dereferenceable(48) %0) local_unnamed_addr #3 align 2 {
  %2 = getelementptr inbounds i8, ptr %0, i64 40
  %3 = load i8, ptr %2, align 8
  %4 = and i8 %3, 1
  %.not = icmp eq i8 %4, 0
  br i1 %.not, label %5, label %.loopexit

5:                                                ; preds = %1
  %6 = getelementptr inbounds i8, ptr %0, i64 16
  %7 = load ptr, ptr %6, align 8
  %8 = getelementptr inbounds i8, ptr %0, i64 24
  %9 = load ptr, ptr %8, align 8
  %.not1112 = icmp eq ptr %7, %9
  br i1 %.not1112, label %.loopexit, label %.lr.ph

.lr.ph:                                           ; preds = %5, %.lr.ph
  %.01014 = phi i64 [ %.sroa.speculated, %.lr.ph ], [ 1, %5 ]
  %.sroa.04.013 = phi ptr [ %12, %.lr.ph ], [ %7, %5 ]
  %10 = getelementptr inbounds i8, ptr %.sroa.04.013, i64 32
  %11 = load i64, ptr %10, align 8
  %.sroa.speculated = tail call i64 @llvm.umax.i64(i64 %.01014, i64 %11)
  %12 = getelementptr inbounds i8, ptr %.sroa.04.013, i64 88
  %.not11 = icmp eq ptr %12, %9
  br i1 %.not11, label %.loopexit, label %.lr.ph

.loopexit:                                        ; preds = %.lr.ph, %5, %1
  %.0 = phi i64 [ 1, %1 ], [ 1, %5 ], [ %.sroa.speculated, %.lr.ph ]
  ret i64 %.0
}